target datalayout = "e-m:e-p270:32:32-p271:32:32-p272:64:64-i64:64-i128:128-f80:128-n8:16:32:64-S128"
target triple = "x86_64-pc-linux-gnu"

; Function Attrs: nounwind uwtable
define internal void @zend_sort_3(ptr noundef %0, ptr noundef %1, ptr noundef %2, ptr noundef %3, ptr noundef %4) #0 {
  %6 = alloca ptr, align 8
  %7 = alloca ptr, align 8
  %8 = alloca ptr, align 8
  %9 = alloca ptr, align 8
  %10 = alloca ptr, align 8
  store ptr %0, ptr %6, align 8
  store ptr %1, ptr %7, align 8
  store ptr %2, ptr %8, align 8
  store ptr %3, ptr %9, align 8
  store ptr %4, ptr %10, align 8
  %11 = load ptr, ptr %9, align 8
  %12 = load ptr, ptr %6, align 8
  %13 = load ptr, ptr %7, align 8
  %14 = call i32 %11(ptr noundef %12, ptr noundef %13)
  %15 = icmp sgt i32 %14, 0
  br i1 %15, label %37, label %16

16:                                               ; preds = %5
  %17 = load ptr, ptr %9, align 8
  %18 = load ptr, ptr %7, align 8
  %19 = load ptr, ptr %8, align 8
  %20 = call i32 %17(ptr noundef %18, ptr noundef %19)
  %21 = icmp sgt i32 %20, 0
  br i1 %21, label %23, label %22

22:                                               ; preds = %16
  br label %60

23:                                               ; preds = %16
  %24 = load ptr, ptr %10, align 8
  %25 = load ptr, ptr %7, align 8
  %26 = load ptr, ptr %8, align 8
  call void %24(ptr noundef %25, ptr noundef %26)
  %27 = load ptr, ptr %9, align 8
  %28 = load ptr, ptr %6, align 8
  %29 = load ptr, ptr %7, align 8
  %30 = call i32 %27(ptr noundef %28, ptr noundef %29)
  %31 = icmp sgt i32 %30, 0
  br i1 %31, label %32, label %36

32:                                               ; preds = %23
  %33 = load ptr, ptr %10, align 8
  %34 = load ptr, ptr %6, align 8
  %35 = load ptr, ptr %7, align 8
  call void %33(ptr noundef %34, ptr noundef %35)
  br label %36

36:                                               ; preds = %32, %23
  br label %60

37:                                               ; preds = %5
  %38 = load ptr, ptr %9, align 8
  %39 = load ptr, ptr %8, align 8
  %40 = load ptr, ptr %7, align 8
  %41 = call i32 %38(ptr noundef %39, ptr noundef %40)
  %42 = icmp sgt i32 %41, 0
  br i1 %42, label %47, label %43

43:                                               ; preds = %37
  %44 = load ptr, ptr %10, align 8
  %45 = load ptr, ptr %6, align 8
  %46 = load ptr, ptr %8, align 8
  call void %44(ptr noundef %45, ptr noundef %46)
  br label %60

47:                                               ; preds = %37
  %48 = load ptr, ptr %10, align 8
  %49 = load ptr, ptr %6, align 8
  %50 = load ptr, ptr %7, align 8
  call void %48(ptr noundef %49, ptr noundef %50)
  %51 = load ptr, ptr %9, align 8
  %52 = load ptr, ptr %7, align 8
  %53 = load ptr, ptr %8, align 8
  %54 = call i32 %51(ptr noundef %52, ptr noundef %53)
  %55 = icmp sgt i32 %54, 0
  br i1 %55, label %56, label %60

56:                                               ; preds = %47
  %57 = load ptr, ptr %10, align 8
  %58 = load ptr, ptr %7, align 8
  %59 = load ptr, ptr %8, align 8
  call void %57(ptr noundef %58, ptr noundef %59)
  br label %60

60:                                               ; preds = %56, %47, %43, %36, %22
  ret void
}

; Function Attrs: nounwind uwtable
define internal void @zend_sort_4(ptr noundef %0, ptr noundef %1, ptr noundef %2, ptr noundef %3, ptr noundef %4, ptr noundef %5) #0 {
  %7 = alloca ptr, align 8
  %8 = alloca ptr, align 8
  %9 = alloca ptr, align 8
  %10 = alloca ptr, align 8
  %11 = alloca ptr, align 8
  %12 = alloca ptr, align 8
  store ptr %0, ptr %7, align 8
  store ptr %1, ptr %8, align 8
  store ptr %2, ptr %9, align 8
  store ptr %3, ptr %10, align 8
  store ptr %4, ptr %11, align 8
  store ptr %5, ptr %12, align 8
  %13 = load ptr, ptr %7, align 8
  %14 = load ptr, ptr %8, align 8
  %15 = load ptr, ptr %9, align 8
  %16 = load ptr, ptr %11, align 8
  %17 = load ptr, ptr %12, align 8
  call void @zend_sort_3(ptr noundef %13, ptr noundef %14, ptr noundef %15, ptr noundef %16, ptr noundef %17)
  %18 = load ptr, ptr %11, align 8
  %19 = load ptr, ptr %9, align 8
  %20 = load ptr, ptr %10, align 8
  %21 = call i32 %18(ptr noundef %19, ptr noundef %20)
  %22 = icmp sgt i32 %21, 0
  br i1 %22, label %23, label %47

23:                                               ; preds = %6
  %24 = load ptr, ptr %12, align 8
  %25 = load ptr, ptr %9, align 8
  %26 = load ptr, ptr %10, align 8
  call void %24(ptr noundef %25, ptr noundef %26)
  %27 = load ptr, ptr %11, align 8
  %28 = load ptr, ptr %8, align 8
  %29 = load ptr, ptr %9, align 8
  %30 = call i32 %27(ptr noundef %28, ptr noundef %29)
  %31 = icmp sgt i32 %30, 0
  br i1 %31, label %32, label %46

32:                                               ; preds = %23
  %33 = load ptr, ptr %12, align 8
  %34 = load ptr, ptr %8, align 8
  %35 = load ptr, ptr %9, align 8
  call void %33(ptr noundef %34, ptr noundef %35)
  %36 = load ptr, ptr %11, align 8
  %37 = load ptr, ptr %7, align 8
  %38 = load ptr, ptr %8, align 8
  %39 = call i32 %36(ptr noundef %37, ptr noundef %38)
  %40 = icmp sgt i32 %39, 0
  br i1 %40, label %41, label %45

41:                                               ; preds = %32
  %42 = load ptr, ptr %12, align 8
  %43 = load ptr, ptr %7, align 8
  %44 = load ptr, ptr %8, align 8
  call void %42(ptr noundef %43, ptr noundef %44)
  br label %45

45:                                               ; preds = %41, %32
  br label %46

46:                                               ; preds = %45, %23
  br label %47

47:                                               ; preds = %46, %6
  ret void
}