; Function Attrs: nounwind uwtable
define internal fastcc void @zend_sort_4(ptr noundef %0, ptr noundef %1, ptr noundef %2, ptr noundef %3, ptr nocapture noundef readonly %4, ptr nocapture noundef readonly %5) unnamed_addr #0 {
  %7 = tail call i32 %4(ptr noundef %0, ptr noundef %1) #1
  %8 = icmp sgt i32 %7, 0
  br i1 %8, label %16, label %9

9:                                                ; preds = %6
  %10 = tail call i32 %4(ptr noundef %1, ptr noundef %2) #1
  %11 = icmp sgt i32 %10, 0
  br i1 %11, label %12, label %zend_sort_3.exit

12:                                               ; preds = %9
  tail call void %5(ptr noundef %1, ptr noundef %2) #1
  %13 = tail call i32 %4(ptr noundef %0, ptr noundef %1) #1
  %14 = icmp sgt i32 %13, 0
  br i1 %14, label %15, label %zend_sort_3.exit

15:                                               ; preds = %12
  tail call void %5(ptr noundef %0, ptr noundef %1) #1
  br label %zend_sort_3.exit

16:                                               ; preds = %6
  %17 = tail call i32 %4(ptr noundef %2, ptr noundef %1) #1
  %18 = icmp sgt i32 %17, 0
  br i1 %18, label %20, label %19

19:                                               ; preds = %16
  tail call void %5(ptr noundef %0, ptr noundef %2) #1
  br label %zend_sort_3.exit

20:                                               ; preds = %16
  tail call void %5(ptr noundef %0, ptr noundef %1) #1
  %21 = tail call i32 %4(ptr noundef %1, ptr noundef %2) #1
  %22 = icmp sgt i32 %21, 0
  br i1 %22, label %23, label %zend_sort_3.exit

23:                                               ; preds = %20
  tail call void %5(ptr noundef %1, ptr noundef %2) #1
  br label %zend_sort_3.exit

zend_sort_3.exit:                                 ; preds = %9, %12, %15, %19, %20, %23
  %24 = tail call i32 %4(ptr noundef %2, ptr noundef %3) #1
  %25 = icmp sgt i32 %24, 0
  br i1 %25, label %26, label %33

26:                                               ; preds = %zend_sort_3.exit
  tail call void %5(ptr noundef %2, ptr noundef %3) #1
  %27 = tail call i32 %4(ptr noundef %1, ptr noundef %2) #1
  %28 = icmp sgt i32 %27, 0
  br i1 %28, label %29, label %33

29:                                               ; preds = %26
  tail call void %5(ptr noundef %1, ptr noundef %2) #1
  %30 = tail call i32 %4(ptr noundef %0, ptr noundef %1) #1
  %31 = icmp sgt i32 %30, 0
  br i1 %31, label %32, label %33

32:                                               ; preds = %29
  tail call void %5(ptr noundef %0, ptr noundef %1) #1
  br label %33

33:                                               ; preds = %26, %32, %29, %zend_sort_3.exit
  ret void
}